; Function Attrs: nounwind uwtable
define noundef i32 @SUNAdaptController_SetErrorBias_MRIHTol(ptr noundef readonly captures(none) %0, double noundef %1) #0 {
  %3 = load ptr, ptr %0, align 8, !tbaa !27
  %4 = load ptr, ptr %3, align 8, !tbaa !19
  %5 = tail call i32 @SUNAdaptController_SetErrorBias(ptr noundef %4, double noundef %1) #9
  %6 = load ptr, ptr %0, align 8, !tbaa !27
  %7 = getelementptr inbounds nuw i8, ptr %6, i64 8
  %8 = load ptr, ptr %7, align 8, !tbaa !23
  %9 = tail call i32 @SUNAdaptController_SetErrorBias(ptr noundef %8, double noundef %1) #9
  ret i32 0
}